target datalayout = "e-m:e-p270:32:32-p271:32:32-p272:64:64-i64:64-i128:128-f80:128-n8:16:32:64-S128"
target triple = "x86_64-pc-linux-gnu"

@hf_cfm_mep_id = internal global i32 0, align 4
@hf_cfm_maid = internal global i32 0, align 4
@hf_cfm_maid_md_name_format = internal global i32 0, align 4
@hf_cfm_maid_md_name_length = internal global i32 0, align 4
@hf_cfm_maid_md_name_string = internal global i32 0, align 4
@hf_cfm_maid_md_name_hex = internal global i32 0, align 4
@hf_cfm_maid_md_name_mac = internal global i32 0, align 4
@hf_cfm_maid_md_name_mac_id = internal global i32 0, align 4
@hf_cfm_maid_ma_name_format = internal global i32 0, align 4
@hf_cfm_maid_ma_name_length = internal global i32 0, align 4
@hf_cfm_maid_ma_name_pvid = internal global i32 0, align 4
@hf_cfm_maid_ma_name_string = internal global i32 0, align 4
@hf_cfm_maid_ma_name_id = internal global i32 0, align 4
@hf_cfm_maid_ma_name_vpnid_oui = internal global i32 0, align 4
@hf_cfm_maid_ma_name_vpnid_index = internal global i32 0, align 4
@hf_cfm_maid_ma_name_icc_umc = internal global i32 0, align 4
@hf_cfm_maid_ma_name_cc = internal global i32 0, align 4
@hf_cfm_maid_ma_name_hex = internal global i32 0, align 4
@hf_cfm_maid_padding = internal global i32 0, align 4
@ett_cfm_maid = internal global i32 0, align 4

; Function Attrs: null_pointer_is_valid sspstrong uwtable
define internal i32 @dissect_mep_maid(ptr noundef %0, ptr noundef %1, ptr noundef %2, i32 noundef %3) #0 {
  %5 = alloca ptr, align 8
  %6 = alloca ptr, align 8
  %7 = alloca ptr, align 8
  %8 = alloca i32, align 4
  %9 = alloca ptr, align 8
  %10 = alloca ptr, align 8
  %11 = alloca i32, align 4
  %12 = alloca i32, align 4
  %13 = alloca i32, align 4
  %14 = alloca i32, align 4
  %15 = alloca i8, align 1
  %16 = alloca i32, align 4
  store ptr %0, ptr %5, align 8
  store ptr %1, ptr %6, align 8
  store ptr %2, ptr %7, align 8
  store i32 %3, ptr %8, align 4
  call void @llvm.lifetime.start.p0(i64 8, ptr %9) #5
  call void @llvm.lifetime.start.p0(i64 8, ptr %10) #5
  call void @llvm.lifetime.start.p0(i64 4, ptr %11) #5
  call void @llvm.lifetime.start.p0(i64 4, ptr %12) #5
  call void @llvm.lifetime.start.p0(i64 4, ptr %13) #5
  call void @llvm.lifetime.start.p0(i64 4, ptr %14) #5
  %17 = load ptr, ptr %7, align 8
  %18 = load i32, ptr @hf_cfm_mep_id, align 4
  %19 = load ptr, ptr %5, align 8
  %20 = load i32, ptr %8, align 4
  %21 = call ptr @proto_tree_add_item(ptr noundef %17, i32 noundef %18, ptr noundef %19, i32 noundef %20, i32 noundef 2, i32 noundef 0)
  %22 = load i32, ptr %8, align 4
  %23 = add i32 %22, 2
  store i32 %23, ptr %8, align 4
  %24 = load ptr, ptr %7, align 8
  %25 = load i32, ptr @hf_cfm_maid, align 4
  %26 = load ptr, ptr %5, align 8
  %27 = load i32, ptr %8, align 4
  %28 = call ptr @proto_tree_add_item(ptr noundef %24, i32 noundef %25, ptr noundef %26, i32 noundef %27, i32 noundef 48, i32 noundef 0)
  store ptr %28, ptr %9, align 8
  %29 = load ptr, ptr %9, align 8
  %30 = load i32, ptr @ett_cfm_maid, align 4
  %31 = call ptr @proto_item_add_subtree(ptr noundef %29, i32 noundef %30)
  store ptr %31, ptr %10, align 8
  %32 = load i32, ptr %8, align 4
  store i32 %32, ptr %11, align 4
  %33 = load ptr, ptr %10, align 8
  %34 = load i32, ptr @hf_cfm_maid_md_name_format, align 4
  %35 = load ptr, ptr %5, align 8
  %36 = load i32, ptr %11, align 4
  %37 = call ptr @proto_tree_add_item_ret_uint(ptr noundef %33, i32 noundef %34, ptr noundef %35, i32 noundef %36, i32 noundef 1, i32 noundef 0, ptr noundef %12)
  %38 = load i32, ptr %11, align 4
  %39 = add i32 %38, 1
  store i32 %39, ptr %11, align 4
  %40 = load i32, ptr %12, align 4
  %41 = icmp ne i32 %40, 1
  br i1 %41, label %42, label %104

42:                                               ; preds = %4
  call void @llvm.lifetime.start.p0(i64 1, ptr %15) #5
  %43 = load ptr, ptr %10, align 8
  %44 = load i32, ptr @hf_cfm_maid_md_name_length, align 4
  %45 = load ptr, ptr %5, align 8
  %46 = load i32, ptr %11, align 4
  %47 = call ptr @proto_tree_add_item(ptr noundef %43, i32 noundef %44, ptr noundef %45, i32 noundef %46, i32 noundef 1, i32 noundef 0)
  %48 = load ptr, ptr %5, align 8
  %49 = load i32, ptr %11, align 4
  %50 = call zeroext i8 @tvb_get_uint8(ptr noundef %48, i32 noundef %49)
  store i8 %50, ptr %15, align 1
  %51 = load i32, ptr %11, align 4
  %52 = add i32 %51, 1
  store i32 %52, ptr %11, align 4
  %53 = load i8, ptr %15, align 1
  %54 = icmp ne i8 %53, 0
  br i1 %54, label %55, label %103

55:                                               ; preds = %42
  %56 = load i32, ptr %12, align 4
  switch i32 %56, label %90 [
    i32 3, label %57
    i32 2, label %82
    i32 4, label %82
  ]

57:                                               ; preds = %55
  %58 = load i8, ptr %15, align 1
  %59 = zext i8 %58 to i32
  %60 = icmp ne i32 %59, 8
  br i1 %60, label %61, label %69

61:                                               ; preds = %57
  %62 = load ptr, ptr %10, align 8
  %63 = load i32, ptr @hf_cfm_maid_md_name_hex, align 4
  %64 = load ptr, ptr %5, align 8
  %65 = load i32, ptr %11, align 4
  %66 = load i8, ptr %15, align 1
  %67 = zext i8 %66 to i32
  %68 = call ptr @proto_tree_add_item(ptr noundef %62, i32 noundef %63, ptr noundef %64, i32 noundef %65, i32 noundef %67, i32 noundef 0)
  br label %81

69:                                               ; preds = %57
  %70 = load ptr, ptr %10, align 8
  %71 = load i32, ptr @hf_cfm_maid_md_name_mac, align 4
  %72 = load ptr, ptr %5, align 8
  %73 = load i32, ptr %11, align 4
  %74 = call ptr @proto_tree_add_item(ptr noundef %70, i32 noundef %71, ptr noundef %72, i32 noundef %73, i32 noundef 6, i32 noundef 0)
  %75 = load ptr, ptr %10, align 8
  %76 = load i32, ptr @hf_cfm_maid_md_name_mac_id, align 4
  %77 = load ptr, ptr %5, align 8
  %78 = load i32, ptr %11, align 4
  %79 = add i32 %78, 6
  %80 = call ptr @proto_tree_add_item(ptr noundef %75, i32 noundef %76, ptr noundef %77, i32 noundef %79, i32 noundef 2, i32 noundef 0)
  br label %81

81:                                               ; preds = %69, %61
  br label %98

82:                                               ; preds = %55, %55
  %83 = load ptr, ptr %10, align 8
  %84 = load i32, ptr @hf_cfm_maid_md_name_string, align 4
  %85 = load ptr, ptr %5, align 8
  %86 = load i32, ptr %11, align 4
  %87 = load i8, ptr %15, align 1
  %88 = zext i8 %87 to i32
  %89 = call ptr @proto_tree_add_item(ptr noundef %83, i32 noundef %84, ptr noundef %85, i32 noundef %86, i32 noundef %88, i32 noundef 0)
  br label %98

90:                                               ; preds = %55
  %91 = load ptr, ptr %10, align 8
  %92 = load i32, ptr @hf_cfm_maid_md_name_hex, align 4
  %93 = load ptr, ptr %5, align 8
  %94 = load i32, ptr %11, align 4
  %95 = load i8, ptr %15, align 1
  %96 = zext i8 %95 to i32
  %97 = call ptr @proto_tree_add_item(ptr noundef %91, i32 noundef %92, ptr noundef %93, i32 noundef %94, i32 noundef %96, i32 noundef 0)
  br label %98

98:                                               ; preds = %90, %82, %81
  %99 = load i8, ptr %15, align 1
  %100 = zext i8 %99 to i32
  %101 = load i32, ptr %11, align 4
  %102 = add i32 %101, %100
  store i32 %102, ptr %11, align 4
  br label %103

103:                                              ; preds = %98, %42
  call void @llvm.lifetime.end.p0(i64 1, ptr %15) #5
  br label %104

104:                                              ; preds = %103, %4
  %105 = load ptr, ptr %10, align 8
  %106 = load i32, ptr @hf_cfm_maid_ma_name_format, align 4
  %107 = load ptr, ptr %5, align 8
  %108 = load i32, ptr %11, align 4
  %109 = call ptr @proto_tree_add_item_ret_uint(ptr noundef %105, i32 noundef %106, ptr noundef %107, i32 noundef %108, i32 noundef 1, i32 noundef 0, ptr noundef %13)
  %110 = load i32, ptr %11, align 4
  %111 = add i32 %110, 1
  store i32 %111, ptr %11, align 4
  %112 = load ptr, ptr %10, align 8
  %113 = load i32, ptr @hf_cfm_maid_ma_name_length, align 4
  %114 = load ptr, ptr %5, align 8
  %115 = load i32, ptr %11, align 4
  %116 = call ptr @proto_tree_add_item_ret_uint(ptr noundef %112, i32 noundef %113, ptr noundef %114, i32 noundef %115, i32 noundef 1, i32 noundef 0, ptr noundef %14)
  %117 = load i32, ptr %11, align 4
  %118 = add i32 %117, 1
  store i32 %118, ptr %11, align 4
  %119 = load i32, ptr %13, align 4
  switch i32 %119, label %231 [
    i32 0, label %120
    i32 1, label %127
    i32 2, label %144
    i32 3, label %151
    i32 4, label %168
    i32 32, label %191
    i32 33, label %208
  ]

120:                                              ; preds = %104
  %121 = load ptr, ptr %10, align 8
  %122 = load i32, ptr @hf_cfm_maid_ma_name_hex, align 4
  %123 = load ptr, ptr %5, align 8
  %124 = load i32, ptr %11, align 4
  %125 = load i32, ptr %14, align 4
  %126 = call ptr @proto_tree_add_item(ptr noundef %121, i32 noundef %122, ptr noundef %123, i32 noundef %124, i32 noundef %125, i32 noundef 0)
  br label %238

127:                                              ; preds = %104
  %128 = load i32, ptr %14, align 4
  %129 = icmp ne i32 %128, 2
  br i1 %129, label %130, label %137

130:                                              ; preds = %127
  %131 = load ptr, ptr %10, align 8
  %132 = load i32, ptr @hf_cfm_maid_ma_name_hex, align 4
  %133 = load ptr, ptr %5, align 8
  %134 = load i32, ptr %11, align 4
  %135 = load i32, ptr %14, align 4
  %136 = call ptr @proto_tree_add_item(ptr noundef %131, i32 noundef %132, ptr noundef %133, i32 noundef %134, i32 noundef %135, i32 noundef 0)
  br label %143

137:                                              ; preds = %127
  %138 = load ptr, ptr %10, align 8
  %139 = load i32, ptr @hf_cfm_maid_ma_name_pvid, align 4
  %140 = load ptr, ptr %5, align 8
  %141 = load i32, ptr %11, align 4
  %142 = call ptr @proto_tree_add_item(ptr noundef %138, i32 noundef %139, ptr noundef %140, i32 noundef %141, i32 noundef 2, i32 noundef 0)
  br label %143

143:                                              ; preds = %137, %130
  br label %238

144:                                              ; preds = %104
  %145 = load ptr, ptr %10, align 8
  %146 = load i32, ptr @hf_cfm_maid_ma_name_string, align 4
  %147 = load ptr, ptr %5, align 8
  %148 = load i32, ptr %11, align 4
  %149 = load i32, ptr %14, align 4
  %150 = call ptr @proto_tree_add_item(ptr noundef %145, i32 noundef %146, ptr noundef %147, i32 noundef %148, i32 noundef %149, i32 noundef 0)
  br label %238

151:                                              ; preds = %104
  %152 = load i32, ptr %14, align 4
  %153 = icmp ne i32 %152, 2
  br i1 %153, label %154, label %161

154:                                              ; preds = %151
  %155 = load ptr, ptr %10, align 8
  %156 = load i32, ptr @hf_cfm_maid_ma_name_hex, align 4
  %157 = load ptr, ptr %5, align 8
  %158 = load i32, ptr %11, align 4
  %159 = load i32, ptr %14, align 4
  %160 = call ptr @proto_tree_add_item(ptr noundef %155, i32 noundef %156, ptr noundef %157, i32 noundef %158, i32 noundef %159, i32 noundef 0)
  br label %167

161:                                              ; preds = %151
  %162 = load ptr, ptr %10, align 8
  %163 = load i32, ptr @hf_cfm_maid_ma_name_id, align 4
  %164 = load ptr, ptr %5, align 8
  %165 = load i32, ptr %11, align 4
  %166 = call ptr @proto_tree_add_item(ptr noundef %162, i32 noundef %163, ptr noundef %164, i32 noundef %165, i32 noundef 2, i32 noundef 0)
  br label %167

167:                                              ; preds = %161, %154
  br label %238

168:                                              ; preds = %104
  %169 = load i32, ptr %14, align 4
  %170 = icmp ne i32 %169, 7
  br i1 %170, label %171, label %178

171:                                              ; preds = %168
  %172 = load ptr, ptr %10, align 8
  %173 = load i32, ptr @hf_cfm_maid_ma_name_hex, align 4
  %174 = load ptr, ptr %5, align 8
  %175 = load i32, ptr %11, align 4
  %176 = load i32, ptr %14, align 4
  %177 = call ptr @proto_tree_add_item(ptr noundef %172, i32 noundef %173, ptr noundef %174, i32 noundef %175, i32 noundef %176, i32 noundef 0)
  br label %190

178:                                              ; preds = %168
  %179 = load ptr, ptr %10, align 8
  %180 = load i32, ptr @hf_cfm_maid_ma_name_vpnid_oui, align 4
  %181 = load ptr, ptr %5, align 8
  %182 = load i32, ptr %11, align 4
  %183 = call ptr @proto_tree_add_item(ptr noundef %179, i32 noundef %180, ptr noundef %181, i32 noundef %182, i32 noundef 3, i32 noundef 0)
  %184 = load ptr, ptr %10, align 8
  %185 = load i32, ptr @hf_cfm_maid_ma_name_vpnid_index, align 4
  %186 = load ptr, ptr %5, align 8
  %187 = load i32, ptr %11, align 4
  %188 = add i32 %187, 3
  %189 = call ptr @proto_tree_add_item(ptr noundef %184, i32 noundef %185, ptr noundef %186, i32 noundef %188, i32 noundef 4, i32 noundef 0)
  br label %190

190:                                              ; preds = %178, %171
  br label %238

191:                                              ; preds = %104
  %192 = load i32, ptr %14, align 4
  %193 = icmp ne i32 %192, 13
  br i1 %193, label %194, label %201

194:                                              ; preds = %191
  %195 = load ptr, ptr %10, align 8
  %196 = load i32, ptr @hf_cfm_maid_ma_name_hex, align 4
  %197 = load ptr, ptr %5, align 8
  %198 = load i32, ptr %11, align 4
  %199 = load i32, ptr %14, align 4
  %200 = call ptr @proto_tree_add_item(ptr noundef %195, i32 noundef %196, ptr noundef %197, i32 noundef %198, i32 noundef %199, i32 noundef 0)
  br label %207

201:                                              ; preds = %191
  %202 = load ptr, ptr %10, align 8
  %203 = load i32, ptr @hf_cfm_maid_ma_name_icc_umc, align 4
  %204 = load ptr, ptr %5, align 8
  %205 = load i32, ptr %11, align 4
  %206 = call ptr @proto_tree_add_item(ptr noundef %202, i32 noundef %203, ptr noundef %204, i32 noundef %205, i32 noundef 13, i32 noundef 0)
  br label %207

207:                                              ; preds = %201, %194
  br label %238

208:                                              ; preds = %104
  %209 = load i32, ptr %14, align 4
  %210 = icmp ne i32 %209, 15
  br i1 %210, label %211, label %218

211:                                              ; preds = %208
  %212 = load ptr, ptr %10, align 8
  %213 = load i32, ptr @hf_cfm_maid_ma_name_hex, align 4
  %214 = load ptr, ptr %5, align 8
  %215 = load i32, ptr %11, align 4
  %216 = load i32, ptr %14, align 4
  %217 = call ptr @proto_tree_add_item(ptr noundef %212, i32 noundef %213, ptr noundef %214, i32 noundef %215, i32 noundef %216, i32 noundef 0)
  br label %230

218:                                              ; preds = %208
  %219 = load ptr, ptr %10, align 8
  %220 = load i32, ptr @hf_cfm_maid_ma_name_cc, align 4
  %221 = load ptr, ptr %5, align 8
  %222 = load i32, ptr %11, align 4
  %223 = call ptr @proto_tree_add_item(ptr noundef %219, i32 noundef %220, ptr noundef %221, i32 noundef %222, i32 noundef 2, i32 noundef 0)
  %224 = load ptr, ptr %10, align 8
  %225 = load i32, ptr @hf_cfm_maid_ma_name_icc_umc, align 4
  %226 = load ptr, ptr %5, align 8
  %227 = load i32, ptr %11, align 4
  %228 = add i32 %227, 2
  %229 = call ptr @proto_tree_add_item(ptr noundef %224, i32 noundef %225, ptr noundef %226, i32 noundef %228, i32 noundef 13, i32 noundef 0)
  br label %230

230:                                              ; preds = %218, %211
  br label %238

231:                                              ; preds = %104
  %232 = load ptr, ptr %10, align 8
  %233 = load i32, ptr @hf_cfm_maid_ma_name_hex, align 4
  %234 = load ptr, ptr %5, align 8
  %235 = load i32, ptr %11, align 4
  %236 = load i32, ptr %14, align 4
  %237 = call ptr @proto_tree_add_item(ptr noundef %232, i32 noundef %233, ptr noundef %234, i32 noundef %235, i32 noundef %236, i32 noundef 0)
  br label %238

238:                                              ; preds = %231, %230, %207, %190, %167, %144, %143, %120
  %239 = load i32, ptr %14, align 4
  %240 = load i32, ptr %11, align 4
  %241 = add i32 %240, %239
  store i32 %241, ptr %11, align 4
  %242 = load i32, ptr %8, align 4
  %243 = add i32 %242, 48
  store i32 %243, ptr %8, align 4
  %244 = load i32, ptr %8, align 4
  %245 = load i32, ptr %11, align 4
  %246 = icmp sgt i32 %244, %245
  br i1 %246, label %247, label %257

247:                                              ; preds = %238
  call void @llvm.lifetime.start.p0(i64 4, ptr %16) #5
  %248 = load i32, ptr %8, align 4
  %249 = load i32, ptr %11, align 4
  %250 = sub i32 %248, %249
  store i32 %250, ptr %16, align 4
  %251 = load ptr, ptr %10, align 8
  %252 = load i32, ptr @hf_cfm_maid_padding, align 4
  %253 = load ptr, ptr %5, align 8
  %254 = load i32, ptr %11, align 4
  %255 = load i32, ptr %16, align 4
  %256 = call ptr @proto_tree_add_item(ptr noundef %251, i32 noundef %252, ptr noundef %253, i32 noundef %254, i32 noundef %255, i32 noundef 0)
  call void @llvm.lifetime.end.p0(i64 4, ptr %16) #5
  br label %257

257:                                              ; preds = %247, %238
  %258 = load i32, ptr %8, align 4
  call void @llvm.lifetime.end.p0(i64 4, ptr %14) #5
  call void @llvm.lifetime.end.p0(i64 4, ptr %13) #5
  call void @llvm.lifetime.end.p0(i64 4, ptr %12) #5
  call void @llvm.lifetime.end.p0(i64 4, ptr %11) #5
  call void @llvm.lifetime.end.p0(i64 8, ptr %10) #5
  call void @llvm.lifetime.end.p0(i64 8, ptr %9) #5
  ret i32 %258
}