; Function Attrs: null_pointer_is_valid sspstrong uwtable
define internal fastcc noundef i32 @dissect_mep_maid(ptr noundef %0, ptr noundef %1, i32 noundef %2) unnamed_addr #0 {
  %4 = alloca i32, align 4
  %5 = alloca i32, align 4
  %6 = alloca i32, align 4
  call void @llvm.lifetime.start.p0(i64 4, ptr nonnull %4) #5
  call void @llvm.lifetime.start.p0(i64 4, ptr nonnull %5) #5
  call void @llvm.lifetime.start.p0(i64 4, ptr nonnull %6) #5
  %7 = load i32, ptr @hf_cfm_mep_id, align 4
  %8 = tail call ptr @proto_tree_add_item(ptr noundef %1, i32 noundef %7, ptr noundef %0, i32 noundef %2, i32 noundef 2, i32 noundef 0)
  %9 = add i32 %2, 2
  %10 = load i32, ptr @hf_cfm_maid, align 4
  %11 = tail call ptr @proto_tree_add_item(ptr noundef %1, i32 noundef %10, ptr noundef %0, i32 noundef %9, i32 noundef 48, i32 noundef 0)
  %12 = load i32, ptr @ett_cfm_maid, align 4
  %13 = tail call ptr @proto_item_add_subtree(ptr noundef %11, i32 noundef %12)
  %14 = load i32, ptr @hf_cfm_maid_md_name_format, align 4
  %15 = call ptr @proto_tree_add_item_ret_uint(ptr noundef %13, i32 noundef %14, ptr noundef %0, i32 noundef %9, i32 noundef 1, i32 noundef 0, ptr noundef nonnull %4)
  %16 = add i32 %2, 3
  %17 = load i32, ptr %4, align 4
  %.not = icmp eq i32 %17, 1
  br i1 %.not, label %46, label %18

18:                                               ; preds = %3
  %19 = load i32, ptr @hf_cfm_maid_md_name_length, align 4
  %20 = call ptr @proto_tree_add_item(ptr noundef %13, i32 noundef %19, ptr noundef %0, i32 noundef %16, i32 noundef 1, i32 noundef 0)
  %21 = call zeroext i8 @tvb_get_uint8(ptr noundef %0, i32 noundef %16)
  %22 = add i32 %2, 4
  %.not113 = icmp eq i8 %21, 0
  br i1 %.not113, label %46, label %23

23:                                               ; preds = %18
  %24 = load i32, ptr %4, align 4
  switch i32 %24, label %40 [
    i32 3, label %25
    i32 2, label %36
    i32 4, label %36
  ]

25:                                               ; preds = %23
  %.not114 = icmp eq i8 %21, 8
  br i1 %.not114, label %30, label %26

26:                                               ; preds = %25
  %27 = zext i8 %21 to i32
  %28 = load i32, ptr @hf_cfm_maid_md_name_hex, align 4
  %29 = call ptr @proto_tree_add_item(ptr noundef %13, i32 noundef %28, ptr noundef %0, i32 noundef %22, i32 noundef %27, i32 noundef 0)
  br label %44

30:                                               ; preds = %25
  %31 = load i32, ptr @hf_cfm_maid_md_name_mac, align 4
  %32 = call ptr @proto_tree_add_item(ptr noundef %13, i32 noundef %31, ptr noundef %0, i32 noundef %22, i32 noundef 6, i32 noundef 0)
  %33 = load i32, ptr @hf_cfm_maid_md_name_mac_id, align 4
  %34 = add i32 %2, 10
  %35 = call ptr @proto_tree_add_item(ptr noundef %13, i32 noundef %33, ptr noundef %0, i32 noundef %34, i32 noundef 2, i32 noundef 0)
  br label %44

36:                                               ; preds = %23, %23
  %37 = load i32, ptr @hf_cfm_maid_md_name_string, align 4
  %38 = zext i8 %21 to i32
  %39 = call ptr @proto_tree_add_item(ptr noundef %13, i32 noundef %37, ptr noundef %0, i32 noundef %22, i32 noundef %38, i32 noundef 0)
  br label %44

40:                                               ; preds = %23
  %41 = load i32, ptr @hf_cfm_maid_md_name_hex, align 4
  %42 = zext i8 %21 to i32
  %43 = call ptr @proto_tree_add_item(ptr noundef %13, i32 noundef %41, ptr noundef %0, i32 noundef %22, i32 noundef %42, i32 noundef 0)
  br label %44

44:                                               ; preds = %26, %30, %40, %36
  %.pre-phi = phi i32 [ %27, %26 ], [ 8, %30 ], [ %42, %40 ], [ %38, %36 ]
  %45 = add i32 %22, %.pre-phi
  br label %46

46:                                               ; preds = %18, %44, %3
  %.0 = phi i32 [ %16, %3 ], [ %45, %44 ], [ %22, %18 ]
  %47 = load i32, ptr @hf_cfm_maid_ma_name_format, align 4
  %48 = call ptr @proto_tree_add_item_ret_uint(ptr noundef %13, i32 noundef %47, ptr noundef %0, i32 noundef %.0, i32 noundef 1, i32 noundef 0, ptr noundef nonnull %5)
  %49 = add i32 %.0, 1
  %50 = load i32, ptr @hf_cfm_maid_ma_name_length, align 4
  %51 = call ptr @proto_tree_add_item_ret_uint(ptr noundef %13, i32 noundef %50, ptr noundef %0, i32 noundef %49, i32 noundef 1, i32 noundef 0, ptr noundef nonnull %6)
  %52 = add i32 %.0, 2
  %53 = load i32, ptr %5, align 4
  switch i32 %53, label %108 [
    i32 0, label %54
    i32 1, label %58
    i32 2, label %66
    i32 3, label %70
    i32 4, label %78
    i32 32, label %89
    i32 33, label %97
  ]

54:                                               ; preds = %46
  %55 = load i32, ptr @hf_cfm_maid_ma_name_hex, align 4
  %56 = load i32, ptr %6, align 4
  %57 = call ptr @proto_tree_add_item(ptr noundef %13, i32 noundef %55, ptr noundef %0, i32 noundef %52, i32 noundef %56, i32 noundef 0)
  br label %112

58:                                               ; preds = %46
  %59 = load i32, ptr %6, align 4
  %.not119 = icmp eq i32 %59, 2
  br i1 %.not119, label %63, label %60

60:                                               ; preds = %58
  %61 = load i32, ptr @hf_cfm_maid_ma_name_hex, align 4
  %62 = call ptr @proto_tree_add_item(ptr noundef %13, i32 noundef %61, ptr noundef %0, i32 noundef %52, i32 noundef %59, i32 noundef 0)
  br label %112

63:                                               ; preds = %58
  %64 = load i32, ptr @hf_cfm_maid_ma_name_pvid, align 4
  %65 = call ptr @proto_tree_add_item(ptr noundef %13, i32 noundef %64, ptr noundef %0, i32 noundef %52, i32 noundef 2, i32 noundef 0)
  br label %112

66:                                               ; preds = %46
  %67 = load i32, ptr @hf_cfm_maid_ma_name_string, align 4
  %68 = load i32, ptr %6, align 4
  %69 = call ptr @proto_tree_add_item(ptr noundef %13, i32 noundef %67, ptr noundef %0, i32 noundef %52, i32 noundef %68, i32 noundef 0)
  br label %112

70:                                               ; preds = %46
  %71 = load i32, ptr %6, align 4
  %.not118 = icmp eq i32 %71, 2
  br i1 %.not118, label %75, label %72

72:                                               ; preds = %70
  %73 = load i32, ptr @hf_cfm_maid_ma_name_hex, align 4
  %74 = call ptr @proto_tree_add_item(ptr noundef %13, i32 noundef %73, ptr noundef %0, i32 noundef %52, i32 noundef %71, i32 noundef 0)
  br label %112

75:                                               ; preds = %70
  %76 = load i32, ptr @hf_cfm_maid_ma_name_id, align 4
  %77 = call ptr @proto_tree_add_item(ptr noundef %13, i32 noundef %76, ptr noundef %0, i32 noundef %52, i32 noundef 2, i32 noundef 0)
  br label %112

78:                                               ; preds = %46
  %79 = load i32, ptr %6, align 4
  %.not117 = icmp eq i32 %79, 7
  br i1 %.not117, label %83, label %80

80:                                               ; preds = %78
  %81 = load i32, ptr @hf_cfm_maid_ma_name_hex, align 4
  %82 = call ptr @proto_tree_add_item(ptr noundef %13, i32 noundef %81, ptr noundef %0, i32 noundef %52, i32 noundef %79, i32 noundef 0)
  br label %112

83:                                               ; preds = %78
  %84 = load i32, ptr @hf_cfm_maid_ma_name_vpnid_oui, align 4
  %85 = call ptr @proto_tree_add_item(ptr noundef %13, i32 noundef %84, ptr noundef %0, i32 noundef %52, i32 noundef 3, i32 noundef 0)
  %86 = load i32, ptr @hf_cfm_maid_ma_name_vpnid_index, align 4
  %87 = add i32 %.0, 5
  %88 = call ptr @proto_tree_add_item(ptr noundef %13, i32 noundef %86, ptr noundef %0, i32 noundef %87, i32 noundef 4, i32 noundef 0)
  br label %112

89:                                               ; preds = %46
  %90 = load i32, ptr %6, align 4
  %.not116 = icmp eq i32 %90, 13
  br i1 %.not116, label %94, label %91

91:                                               ; preds = %89
  %92 = load i32, ptr @hf_cfm_maid_ma_name_hex, align 4
  %93 = call ptr @proto_tree_add_item(ptr noundef %13, i32 noundef %92, ptr noundef %0, i32 noundef %52, i32 noundef %90, i32 noundef 0)
  br label %112

94:                                               ; preds = %89
  %95 = load i32, ptr @hf_cfm_maid_ma_name_icc_umc, align 4
  %96 = call ptr @proto_tree_add_item(ptr noundef %13, i32 noundef %95, ptr noundef %0, i32 noundef %52, i32 noundef 13, i32 noundef 0)
  br label %112

97:                                               ; preds = %46
  %98 = load i32, ptr %6, align 4
  %.not115 = icmp eq i32 %98, 15
  br i1 %.not115, label %102, label %99

99:                                               ; preds = %97
  %100 = load i32, ptr @hf_cfm_maid_ma_name_hex, align 4
  %101 = call ptr @proto_tree_add_item(ptr noundef %13, i32 noundef %100, ptr noundef %0, i32 noundef %52, i32 noundef %98, i32 noundef 0)
  br label %112

102:                                              ; preds = %97
  %103 = load i32, ptr @hf_cfm_maid_ma_name_cc, align 4
  %104 = call ptr @proto_tree_add_item(ptr noundef %13, i32 noundef %103, ptr noundef %0, i32 noundef %52, i32 noundef 2, i32 noundef 0)
  %105 = load i32, ptr @hf_cfm_maid_ma_name_icc_umc, align 4
  %106 = add i32 %.0, 4
  %107 = call ptr @proto_tree_add_item(ptr noundef %13, i32 noundef %105, ptr noundef %0, i32 noundef %106, i32 noundef 13, i32 noundef 0)
  br label %112

108:                                              ; preds = %46
  %109 = load i32, ptr @hf_cfm_maid_ma_name_hex, align 4
  %110 = load i32, ptr %6, align 4
  %111 = call ptr @proto_tree_add_item(ptr noundef %13, i32 noundef %109, ptr noundef %0, i32 noundef %52, i32 noundef %110, i32 noundef 0)
  br label %112

112:                                              ; preds = %99, %102, %91, %94, %80, %83, %72, %75, %60, %63, %108, %66, %54
  %113 = load i32, ptr %6, align 4
  %114 = add i32 %113, %52
  %115 = add i32 %2, 50
  %116 = icmp sgt i32 %115, %114
  br i1 %116, label %117, label %121

117:                                              ; preds = %112
  %118 = sub i32 %115, %114
  %119 = load i32, ptr @hf_cfm_maid_padding, align 4
  %120 = call ptr @proto_tree_add_item(ptr noundef %13, i32 noundef %119, ptr noundef %0, i32 noundef %114, i32 noundef %118, i32 noundef 0)
  br label %121

121:                                              ; preds = %117, %112
  call void @llvm.lifetime.end.p0(i64 4, ptr nonnull %6) #5
  call void @llvm.lifetime.end.p0(i64 4, ptr nonnull %5) #5
  call void @llvm.lifetime.end.p0(i64 4, ptr nonnull %4) #5
  ret i32 %115
}